; Function Attrs: mustprogress nofree norecurse nosync nounwind willreturn memory(read, inaccessiblemem: none) uwtable
define dso_local noundef zeroext i1 @_ZN4Luau14Instantiation27isDirtyEPKNS_4TypeE(ptr noundef nonnull readonly align 8 captures(none) dereferenceable(552) %0, ptr noundef %1) unnamed_addr #2 align 2 {
  %.not.i.i = icmp eq ptr %1, null
  br i1 %.not.i.i, label %_ZNK4Luau12DenseHashMapIPKNS_4TypeES3_NS_16DenseHashPointerESt8equal_toIS3_EE8containsERKS3_.exit, label %3

3:                                                ; preds = %2
  %4 = load i32, ptr %1, align 8, !tbaa !8
  %5 = icmp eq i32 %4, 3
  br i1 %5, label %_ZN4Luau3getINS_11GenericTypeEEEPKT_PKNS_4TypeE.exit, label %_ZNK4Luau12DenseHashMapIPKNS_4TypeES3_NS_16DenseHashPointerESt8equal_toIS3_EE8containsERKS3_.exit

_ZN4Luau3getINS_11GenericTypeEEEPKT_PKNS_4TypeE.exit: ; preds = %3
  %6 = getelementptr inbounds nuw i8, ptr %0, i64 472
  %7 = getelementptr inbounds nuw i8, ptr %0, i64 488
  %8 = load i64, ptr %7, align 8, !tbaa !51
  %9 = icmp eq i64 %8, 0
  br i1 %9, label %_ZNK4Luau12DenseHashMapIPKNS_4TypeES3_NS_16DenseHashPointerESt8equal_toIS3_EE8containsERKS3_.exit, label %10

10:                                               ; preds = %_ZN4Luau3getINS_11GenericTypeEEEPKT_PKNS_4TypeE.exit
  %11 = getelementptr inbounds nuw i8, ptr %0, i64 496
  %12 = load ptr, ptr %11, align 8, !tbaa !58
  %13 = icmp eq ptr %1, %12
  br i1 %13, label %_ZNK4Luau12DenseHashMapIPKNS_4TypeES3_NS_16DenseHashPointerESt8equal_toIS3_EE8containsERKS3_.exit, label %14

14:                                               ; preds = %10
  %15 = getelementptr inbounds nuw i8, ptr %0, i64 480
  %16 = load i64, ptr %15, align 8, !tbaa !68
  %17 = add i64 %16, -1
  %18 = ptrtoint ptr %1 to i64
  %19 = lshr i64 %18, 4
  %20 = lshr i64 %18, 9
  %21 = xor i64 %19, %20
  %22 = load ptr, ptr %6, align 8, !tbaa !69
  br label %23

23:                                               ; preds = %28, %14
  %.pn.i.i = phi i64 [ %21, %14 ], [ %30, %28 ]
  %.02028.i.i = phi i64 [ 0, %14 ], [ %29, %28 ]
  %.02129.i.i = and i64 %.pn.i.i, %17
  %24 = getelementptr inbounds nuw %"struct.std::pair.91", ptr %22, i64 %.02129.i.i
  %25 = load ptr, ptr %24, align 8, !tbaa !58
  %26 = icmp eq ptr %25, %1
  %27 = icmp eq ptr %25, %12
  %or.cond = or i1 %26, %27
  br i1 %or.cond, label %_ZNK4Luau12DenseHashMapIPKNS_4TypeES3_NS_16DenseHashPointerESt8equal_toIS3_EE8containsERKS3_.exit, label %28

28:                                               ; preds = %23
  %29 = add i64 %.02028.i.i, 1
  %30 = add i64 %29, %.02129.i.i
  %.not.i.i1 = icmp ugt i64 %29, %17
  br i1 %.not.i.i1, label %_ZNK4Luau12DenseHashMapIPKNS_4TypeES3_NS_16DenseHashPointerESt8equal_toIS3_EE8containsERKS3_.exit, label %23, !llvm.loop !59

_ZNK4Luau12DenseHashMapIPKNS_4TypeES3_NS_16DenseHashPointerESt8equal_toIS3_EE8containsERKS3_.exit: ; preds = %28, %23, %2, %3, %10, %_ZN4Luau3getINS_11GenericTypeEEEPKT_PKNS_4TypeE.exit
  %31 = phi i1 [ false, %_ZN4Luau3getINS_11GenericTypeEEEPKT_PKNS_4TypeE.exit ], [ false, %10 ], [ false, %3 ], [ false, %2 ], [ %26, %23 ], [ %26, %28 ]
  ret i1 %31
}